target datalayout = "e-m:e-p270:32:32-p271:32:32-p272:64:64-i64:64-i128:128-f80:128-n8:16:32:64-S128"
target triple = "x86_64-pc-linux-gnu"

%struct._cms_io_handler = type { ptr, ptr, i32, i32, [256 x i8], ptr, ptr, ptr, ptr, ptr }

; Function Attrs: nounwind uwtable
define hidden i32 @_cmsWriteUInt8Number(ptr noundef %0, i8 noundef zeroext %1) #0 {
  %3 = alloca i32, align 4
  %4 = alloca ptr, align 8
  %5 = alloca i8, align 1
  store ptr %0, ptr %4, align 8
  store i8 %1, ptr %5, align 1
  %6 = load ptr, ptr %4, align 8
  %7 = getelementptr inbounds %struct._cms_io_handler, ptr %6, i32 0, i32 9
  %8 = load ptr, ptr %7, align 8
  %9 = load ptr, ptr %4, align 8
  %10 = call i32 %8(ptr noundef %9, i32 noundef 1, ptr noundef %5)
  %11 = icmp ne i32 %10, 1
  br i1 %11, label %12, label %13

12:                                               ; preds = %2
  store i32 0, ptr %3, align 4
  br label %14

13:                                               ; preds = %2
  store i32 1, ptr %3, align 4
  br label %14

14:                                               ; preds = %13, %12
  %15 = load i32, ptr %3, align 4
  ret i32 %15
}