; Function Attrs: nounwind uwtable
define hidden range(i32 0, 2) i32 @_cmsWriteUInt8Number(ptr noundef %0, i8 noundef zeroext %1) local_unnamed_addr #2 {
  %3 = alloca i8, align 1
  store i8 %1, ptr %3, align 1
  %4 = getelementptr inbounds i8, ptr %0, i64 312
  %5 = load ptr, ptr %4, align 8
  %6 = call i32 %5(ptr noundef %0, i32 noundef 1, ptr noundef nonnull %3) #12
  %.not = icmp eq i32 %6, 1
  %. = zext i1 %.not to i32
  ret i32 %.
}